target datalayout = "e-m:e-p270:32:32-p271:32:32-p272:64:64-i64:64-i128:128-f80:128-n8:16:32:64-S128"
target triple = "x86_64-pc-linux-gnu"

%struct.G726Tables = type { ptr, ptr, ptr, ptr }
%struct.AVCodecContext = type { ptr, i32, i32, ptr, i32, i32, ptr, ptr, ptr, i64, i32, i32, ptr, i32, %struct.AVRational, %struct.AVRational, %struct.AVRational, i32, i32, i32, i32, i32, %struct.AVRational, i32, i32, i32, i32, i32, i32, i32, i32, i32, i32, i32, ptr, ptr, i32, float, float, float, float, float, float, float, float, float, i32, i32, i32, i32, i32, i32, i32, i32, i32, i32, i32, i32, ptr, ptr, ptr, i32, i32, i32, i32, i32, i32, i32, i32, i32, i32, %struct.AVChannelLayout, i32, i32, i32, i32, i32, i32, i32, i32, ptr, i32, i32, i32, float, float, i32, i32, i32, i32, i32, ptr, i64, i64, float, float, i32, i32, ptr, ptr, i32, i32, i32, i32, i32, ptr, ptr, ptr, ptr, i32, i32, [8 x i64], i32, i32, i32, i32, i32, i32, i32, ptr, ptr, i32, i32, i32, i32, i32, i32, i32, i32, i32, i32, ptr, ptr, i32, i32, ptr, ptr, ptr, ptr, i32, i32, i64, i32, i32, i64, ptr, i64, ptr, i32, ptr, i32 }
%struct.AVRational = type { i32, i32 }
%struct.AVChannelLayout = type { i32, i32, %union.anon.1, ptr }
%union.anon.1 = type { i64 }
%struct.AVCodec = type { ptr, ptr, i32, i32, i32, i8, ptr, ptr, ptr, ptr, ptr, ptr, ptr, ptr }
%struct.G726Context = type { ptr, %struct.G726Tables, [2 x %struct.Float11], [6 x %struct.Float11], [2 x i32], [6 x i32], [2 x i32], i32, i32, i32, i32, i32, i32, i32, i32, i32, i32, i32 }
%struct.Float11 = type { i8, i8, i8 }

@.str.2 = private unnamed_addr constant [7 x i8] c"g726le\00", align 1
@.str.19 = private unnamed_addr constant [31 x i8] c"Decoding more than one channel\00", align 1
@.str.20 = private unnamed_addr constant [27 x i8] c"Invalid number of bits %d\0A\00", align 1

; Function Attrs: cold nounwind optsize uwtable
define internal i32 @g726_decode_init(ptr noundef %0) #0 {
  %2 = alloca i32, align 4
  %3 = alloca ptr, align 8
  %4 = alloca ptr, align 8
  %5 = alloca i32, align 4
  %6 = alloca %struct.AVChannelLayout, align 8
  store ptr %0, ptr %3, align 8, !tbaa !4
  call void @llvm.lifetime.start.p0(i64 8, ptr %4) #11
  %7 = load ptr, ptr %3, align 8, !tbaa !4
  %8 = getelementptr inbounds nuw %struct.AVCodecContext, ptr %7, i32 0, i32 6
  %9 = load ptr, ptr %8, align 8, !tbaa !9
  store ptr %9, ptr %4, align 8, !tbaa !29
  %10 = load ptr, ptr %3, align 8, !tbaa !4
  %11 = getelementptr inbounds nuw %struct.AVCodecContext, ptr %10, i32 0, i32 71
  %12 = getelementptr inbounds nuw %struct.AVChannelLayout, ptr %11, i32 0, i32 1
  %13 = load i32, ptr %12, align 4, !tbaa !42
  %14 = icmp sgt i32 %13, 1
  br i1 %14, label %15, label %17

15:                                               ; preds = %1
  %16 = load ptr, ptr %3, align 8, !tbaa !4
  call void (ptr, ptr, ...) @avpriv_request_sample(ptr noundef %16, ptr noundef @.str.19)
  store i32 -1163346256, ptr %2, align 4
  store i32 1, ptr %5, align 4
  br label %61

17:                                               ; preds = %1
  %18 = load ptr, ptr %3, align 8, !tbaa !4
  %19 = getelementptr inbounds nuw %struct.AVCodecContext, ptr %18, i32 0, i32 71
  call void @av_channel_layout_uninit(ptr noundef %19)
  %20 = load ptr, ptr %3, align 8, !tbaa !4
  %21 = getelementptr inbounds nuw %struct.AVCodecContext, ptr %20, i32 0, i32 71
  %22 = getelementptr inbounds nuw %struct.AVChannelLayout, ptr %6, i32 0, i32 0
  store i32 1, ptr %22, align 8, !tbaa !67
  %23 = getelementptr inbounds nuw %struct.AVChannelLayout, ptr %6, i32 0, i32 1
  store i32 1, ptr %23, align 4, !tbaa !68
  %24 = getelementptr inbounds nuw %struct.AVChannelLayout, ptr %6, i32 0, i32 2
  store i64 4, ptr %24, align 8, !tbaa !69
  %25 = getelementptr inbounds nuw %struct.AVChannelLayout, ptr %6, i32 0, i32 3
  store ptr null, ptr %25, align 8, !tbaa !70
  call void @llvm.memcpy.p0.p0.i64(ptr align 8 %21, ptr align 8 %6, i64 24, i1 false), !tbaa.struct !71
  %26 = load ptr, ptr %3, align 8, !tbaa !4
  %27 = getelementptr inbounds nuw %struct.AVCodecContext, ptr %26, i32 0, i32 3
  %28 = load ptr, ptr %27, align 8, !tbaa !31
  %29 = getelementptr inbounds nuw %struct.AVCodec, ptr %28, i32 0, i32 0
  %30 = load ptr, ptr %29, align 8, !tbaa !32
  %31 = call i32 @strcmp(ptr noundef %30, ptr noundef @.str.2) #12
  %32 = icmp ne i32 %31, 0
  %33 = xor i1 %32, true
  %34 = zext i1 %33 to i32
  %35 = load ptr, ptr %4, align 8, !tbaa !29
  %36 = getelementptr inbounds nuw %struct.G726Context, ptr %35, i32 0, i32 17
  store i32 %34, ptr %36, align 8, !tbaa !37
  %37 = load ptr, ptr %3, align 8, !tbaa !4
  %38 = getelementptr inbounds nuw %struct.AVCodecContext, ptr %37, i32 0, i32 114
  %39 = load i32, ptr %38, align 8, !tbaa !45
  %40 = load ptr, ptr %4, align 8, !tbaa !29
  %41 = getelementptr inbounds nuw %struct.G726Context, ptr %40, i32 0, i32 16
  store i32 %39, ptr %41, align 4, !tbaa !44
  %42 = load ptr, ptr %4, align 8, !tbaa !29
  %43 = getelementptr inbounds nuw %struct.G726Context, ptr %42, i32 0, i32 16
  %44 = load i32, ptr %43, align 4, !tbaa !44
  %45 = icmp slt i32 %44, 2
  br i1 %45, label %51, label %46

46:                                               ; preds = %17
  %47 = load ptr, ptr %4, align 8, !tbaa !29
  %48 = getelementptr inbounds nuw %struct.G726Context, ptr %47, i32 0, i32 16
  %49 = load i32, ptr %48, align 4, !tbaa !44
  %50 = icmp sgt i32 %49, 5
  br i1 %50, label %51, label %56

51:                                               ; preds = %46, %17
  %52 = load ptr, ptr %3, align 8, !tbaa !4
  %53 = load ptr, ptr %4, align 8, !tbaa !29
  %54 = getelementptr inbounds nuw %struct.G726Context, ptr %53, i32 0, i32 16
  %55 = load i32, ptr %54, align 4, !tbaa !44
  call void (ptr, i32, ptr, ...) @av_log(ptr noundef %52, i32 noundef 16, ptr noundef @.str.20, i32 noundef %55)
  store i32 -22, ptr %2, align 4
  store i32 1, ptr %5, align 4
  br label %61

56:                                               ; preds = %46
  %57 = load ptr, ptr %4, align 8, !tbaa !29
  %58 = call i32 @g726_reset(ptr noundef %57) #14
  %59 = load ptr, ptr %3, align 8, !tbaa !4
  %60 = getelementptr inbounds nuw %struct.AVCodecContext, ptr %59, i32 0, i32 70
  store i32 1, ptr %60, align 4, !tbaa !73
  store i32 0, ptr %2, align 4
  store i32 1, ptr %5, align 4
  br label %61

61:                                               ; preds = %56, %51, %15
  call void @llvm.lifetime.end.p0(i64 8, ptr %4) #11
  %62 = load i32, ptr %2, align 4
  ret i32 %62
}