; Function Attrs: cold nounwind optsize uwtable
define internal range(i32 -1163346256, 1) i32 @g726_decode_init(ptr noundef %0) #0 {
  %2 = getelementptr inbounds nuw i8, ptr %0, i64 32
  %3 = load ptr, ptr %2, align 8, !tbaa !4
  %4 = getelementptr inbounds nuw i8, ptr %0, i64 356
  %5 = load i32, ptr %4, align 4, !tbaa !38
  %6 = icmp sgt i32 %5, 1
  br i1 %6, label %7, label %8

7:                                                ; preds = %1
  tail call void (ptr, ptr, ...) @avpriv_request_sample(ptr noundef nonnull %0, ptr noundef nonnull @.str.19) #14
  br label %23

8:                                                ; preds = %1
  %9 = getelementptr inbounds nuw i8, ptr %0, i64 352
  tail call void @av_channel_layout_uninit(ptr noundef nonnull %9) #14
  store i32 1, ptr %9, align 8, !tbaa !42
  store i32 1, ptr %4, align 4, !tbaa !42
  %.sroa.3.0..sroa_idx = getelementptr inbounds nuw i8, ptr %0, i64 360
  store i64 4, ptr %.sroa.3.0..sroa_idx, align 8, !tbaa !56
  %.sroa.4.0..sroa_idx = getelementptr inbounds nuw i8, ptr %0, i64 368
  store ptr null, ptr %.sroa.4.0..sroa_idx, align 8, !tbaa !64
  %10 = getelementptr inbounds nuw i8, ptr %0, i64 16
  %11 = load ptr, ptr %10, align 8, !tbaa !27
  %12 = load ptr, ptr %11, align 8, !tbaa !28
  %13 = tail call i32 @strcmp(ptr noundef nonnull dereferenceable(1) %12, ptr noundef nonnull dereferenceable(7) @.str.2) #13
  %.not = icmp eq i32 %13, 0
  %14 = zext i1 %.not to i32
  %15 = getelementptr inbounds nuw i8, ptr %3, i64 144
  store i32 %14, ptr %15, align 8, !tbaa !33
  %16 = getelementptr inbounds nuw i8, ptr %0, i64 648
  %17 = load i32, ptr %16, align 8, !tbaa !41
  %18 = getelementptr inbounds nuw i8, ptr %3, i64 140
  store i32 %17, ptr %18, align 4, !tbaa !40
  %19 = add i32 %17, -6
  %or.cond = icmp ult i32 %19, -4
  br i1 %or.cond, label %20, label %21

20:                                               ; preds = %8
  tail call void (ptr, i32, ptr, ...) @av_log(ptr noundef nonnull %0, i32 noundef 16, ptr noundef nonnull @.str.20, i32 noundef %17) #14
  br label %23

21:                                               ; preds = %8
  tail call fastcc void @g726_reset(ptr noundef nonnull %3) #15
  %22 = getelementptr inbounds nuw i8, ptr %0, i64 348
  store i32 1, ptr %22, align 4, !tbaa !65
  br label %23

23:                                               ; preds = %21, %20, %7
  %.0 = phi i32 [ -1163346256, %7 ], [ -22, %20 ], [ 0, %21 ]
  ret i32 %.0
}